target datalayout = "e-m:e-p270:32:32-p271:32:32-p272:64:64-i64:64-i128:128-f80:128-n8:16:32:64-S128"
target triple = "x86_64-pc-linux-gnu"

%struct.H5VL_loc_params_t = type { i32, i32, %union.anon }
%union.anon = type { %struct.H5VL_loc_by_idx }
%struct.H5VL_loc_by_idx = type { ptr, i32, i32, i64, i64 }
%struct.H5VL_group_get_args_t = type { i32, %union.anon.11 }
%union.anon.11 = type { %struct.H5VL_group_get_info_args_t }
%struct.H5VL_group_get_info_args_t = type { %struct.H5VL_loc_params_t, ptr }
%struct.H5G_info_t = type { i32, i64, i64, i8 }

@H5_libinit_g = external global i8, align 1
@H5_libterm_g = external global i8, align 1
@.str = private unnamed_addr constant [103 x i8] c"generated/home/dtcxzyw/WorkSpace/Projects/compilers/llvm-opt-benchmark/bench/hdf5/hdf5/src/H5Gdeprec.c\00", align 1
@H5E_FUNC_g = external global i64, align 8
@H5E_CANTINIT_g = external global i64, align 8
@.str.1 = private unnamed_addr constant [30 x i8] c"library initialization failed\00", align 1
@H5E_CANTSET_g = external global i64, align 8
@.str.2 = private unnamed_addr constant [22 x i8] c"can't set API context\00", align 1
@H5E_ARGS_g = external global i64, align 8
@H5E_BADVALUE_g = external global i64, align 8
@H5E_SYM_g = external global i64, align 8
@H5E_CANTGET_g = external global i64, align 8
@H5P_LST_DATASET_XFER_ID_g = external global i64, align 8
@__func__.H5Gget_num_objs = private unnamed_addr constant [16 x i8] c"H5Gget_num_objs\00", align 1
@.str.35 = private unnamed_addr constant [27 x i8] c"invalid group (or file) ID\00", align 1
@.str.36 = private unnamed_addr constant [28 x i8] c"bad pointer to # of objects\00", align 1
@.str.37 = private unnamed_addr constant [34 x i8] c"can't set object access arguments\00", align 1
@.str.38 = private unnamed_addr constant [25 x i8] c"unable to get group info\00", align 1

; Function Attrs: nounwind uwtable
define i32 @H5Gget_num_objs(i64 noundef %0, ptr noundef %1) #0 {
  %3 = alloca i64, align 8
  %4 = alloca ptr, align 8
  %5 = alloca ptr, align 8
  %6 = alloca %struct.H5VL_group_get_args_t, align 8
  %7 = alloca i32, align 4
  %8 = alloca %struct.H5G_info_t, align 8
  %9 = alloca i32, align 4
  %10 = alloca i8, align 1
  %11 = alloca i8, align 1
  store i64 %0, ptr %3, align 8
  store ptr %1, ptr %4, align 8
  store ptr null, ptr %5, align 8
  store i32 0, ptr %9, align 4
  store i8 0, ptr %10, align 1
  store i8 0, ptr %11, align 1
  %12 = load i8, ptr @H5_libinit_g, align 1
  %13 = trunc i8 %12 to i1
  br i1 %13, label %18, label %14

14:                                               ; preds = %2
  %15 = load i8, ptr @H5_libterm_g, align 1
  %16 = trunc i8 %15 to i1
  %17 = xor i1 %16, true
  br label %18

18:                                               ; preds = %14, %2
  %19 = phi i1 [ false, %2 ], [ %17, %14 ]
  %20 = xor i1 %19, true
  %21 = xor i1 %20, true
  %22 = zext i1 %21 to i32
  %23 = sext i32 %22 to i64
  %24 = icmp ne i64 %23, 0
  br i1 %24, label %25, label %49

25:                                               ; preds = %18
  %26 = call i32 @H5_init_library()
  %27 = icmp slt i32 %26, 0
  %28 = xor i1 %27, true
  %29 = xor i1 %28, true
  %30 = zext i1 %29 to i32
  %31 = sext i32 %30 to i64
  %32 = icmp ne i64 %31, 0
  br i1 %32, label %33, label %48

33:                                               ; preds = %25
  br label %34

34:                                               ; preds = %33
  br label %35

35:                                               ; preds = %34
  br label %36

36:                                               ; preds = %35
  %37 = load i64, ptr @H5E_FUNC_g, align 8
  %38 = load i64, ptr @H5E_CANTINIT_g, align 8
  %39 = call i32 (ptr, ptr, i32, i64, i64, ptr, ...) @H5E_printf_stack(ptr noundef @.str, ptr noundef @__func__.H5Gget_num_objs, i32 noundef 874, i64 noundef %37, i64 noundef %38, ptr noundef @.str.1)
  br label %40

40:                                               ; preds = %36
  store i8 1, ptr %11, align 1
  %41 = load i8, ptr %11, align 1
  %42 = trunc i8 %41 to i1
  %43 = zext i1 %42 to i8
  store i8 %43, ptr %11, align 1
  br label %44

44:                                               ; preds = %40
  br label %45

45:                                               ; preds = %44
  store i32 -1, ptr %9, align 4
  br label %163

46:                                               ; No predecessors!
  br label %47

47:                                               ; preds = %46
  br label %48

48:                                               ; preds = %47, %25
  br label %49

49:                                               ; preds = %48, %18
  %50 = call i32 @H5CX_push()
  %51 = icmp slt i32 %50, 0
  %52 = xor i1 %51, true
  %53 = xor i1 %52, true
  %54 = zext i1 %53 to i32
  %55 = sext i32 %54 to i64
  %56 = icmp ne i64 %55, 0
  br i1 %56, label %57, label %72

57:                                               ; preds = %49
  br label %58

58:                                               ; preds = %57
  br label %59

59:                                               ; preds = %58
  br label %60

60:                                               ; preds = %59
  %61 = load i64, ptr @H5E_FUNC_g, align 8
  %62 = load i64, ptr @H5E_CANTSET_g, align 8
  %63 = call i32 (ptr, ptr, i32, i64, i64, ptr, ...) @H5E_printf_stack(ptr noundef @.str, ptr noundef @__func__.H5Gget_num_objs, i32 noundef 874, i64 noundef %61, i64 noundef %62, ptr noundef @.str.2)
  br label %64

64:                                               ; preds = %60
  store i8 1, ptr %11, align 1
  %65 = load i8, ptr %11, align 1
  %66 = trunc i8 %65 to i1
  %67 = zext i1 %66 to i8
  store i8 %67, ptr %11, align 1
  br label %68

68:                                               ; preds = %64
  br label %69

69:                                               ; preds = %68
  store i32 -1, ptr %9, align 4
  br label %163

70:                                               ; No predecessors!
  br label %71

71:                                               ; preds = %70
  br label %73

72:                                               ; preds = %49
  store i8 1, ptr %10, align 1
  br label %73

73:                                               ; preds = %72, %71
  %74 = call i32 @H5E_clear_stack()
  %75 = load i64, ptr %3, align 8
  %76 = call i32 @H5I_get_type(i64 noundef %75)
  store i32 %76, ptr %7, align 4
  %77 = load i32, ptr %7, align 4
  %78 = icmp eq i32 2, %77
  br i1 %78, label %97, label %79

79:                                               ; preds = %73
  %80 = load i32, ptr %7, align 4
  %81 = icmp eq i32 1, %80
  br i1 %81, label %97, label %82

82:                                               ; preds = %79
  br label %83

83:                                               ; preds = %82
  br label %84

84:                                               ; preds = %83
  br label %85

85:                                               ; preds = %84
  %86 = load i64, ptr @H5E_ARGS_g, align 8
  %87 = load i64, ptr @H5E_BADVALUE_g, align 8
  %88 = call i32 (ptr, ptr, i32, i64, i64, ptr, ...) @H5E_printf_stack(ptr noundef @.str, ptr noundef @__func__.H5Gget_num_objs, i32 noundef 879, i64 noundef %86, i64 noundef %87, ptr noundef @.str.35)
  br label %89

89:                                               ; preds = %85
  store i8 1, ptr %11, align 1
  %90 = load i8, ptr %11, align 1
  %91 = trunc i8 %90 to i1
  %92 = zext i1 %91 to i8
  store i8 %92, ptr %11, align 1
  br label %93

93:                                               ; preds = %89
  br label %94

94:                                               ; preds = %93
  store i32 -1, ptr %9, align 4
  br label %163

95:                                               ; No predecessors!
  br label %96

96:                                               ; preds = %95
  br label %97

97:                                               ; preds = %96, %79, %73
  %98 = load ptr, ptr %4, align 8
  %99 = icmp ne ptr %98, null
  br i1 %99, label %115, label %100

100:                                              ; preds = %97
  br label %101

101:                                              ; preds = %100
  br label %102

102:                                              ; preds = %101
  br label %103

103:                                              ; preds = %102
  %104 = load i64, ptr @H5E_ARGS_g, align 8
  %105 = load i64, ptr @H5E_BADVALUE_g, align 8
  %106 = call i32 (ptr, ptr, i32, i64, i64, ptr, ...) @H5E_printf_stack(ptr noundef @.str, ptr noundef @__func__.H5Gget_num_objs, i32 noundef 881, i64 noundef %104, i64 noundef %105, ptr noundef @.str.36)
  br label %107

107:                                              ; preds = %103
  store i8 1, ptr %11, align 1
  %108 = load i8, ptr %11, align 1
  %109 = trunc i8 %108 to i1
  %110 = zext i1 %109 to i8
  store i8 %110, ptr %11, align 1
  br label %111

111:                                              ; preds = %107
  br label %112

112:                                              ; preds = %111
  store i32 -1, ptr %9, align 4
  br label %163

113:                                              ; No predecessors!
  br label %114

114:                                              ; preds = %113
  br label %115

115:                                              ; preds = %114, %97
  %116 = getelementptr inbounds %struct.H5VL_group_get_args_t, ptr %6, i32 0, i32 0
  store i32 1, ptr %116, align 8
  %117 = load i64, ptr %3, align 8
  %118 = getelementptr inbounds %struct.H5VL_group_get_args_t, ptr %6, i32 0, i32 1
  %119 = getelementptr inbounds %struct.H5VL_group_get_info_args_t, ptr %118, i32 0, i32 0
  %120 = call i32 @H5VL_setup_self_args(i64 noundef %117, ptr noundef %5, ptr noundef %119)
  %121 = icmp slt i32 %120, 0
  br i1 %121, label %122, label %137

122:                                              ; preds = %115
  br label %123

123:                                              ; preds = %122
  br label %124

124:                                              ; preds = %123
  br label %125

125:                                              ; preds = %124
  %126 = load i64, ptr @H5E_SYM_g, align 8
  %127 = load i64, ptr @H5E_CANTSET_g, align 8
  %128 = call i32 (ptr, ptr, i32, i64, i64, ptr, ...) @H5E_printf_stack(ptr noundef @.str, ptr noundef @__func__.H5Gget_num_objs, i32 noundef 886, i64 noundef %126, i64 noundef %127, ptr noundef @.str.37)
  br label %129

129:                                              ; preds = %125
  store i8 1, ptr %11, align 1
  %130 = load i8, ptr %11, align 1
  %131 = trunc i8 %130 to i1
  %132 = zext i1 %131 to i8
  store i8 %132, ptr %11, align 1
  br label %133

133:                                              ; preds = %129
  br label %134

134:                                              ; preds = %133
  store i32 -1, ptr %9, align 4
  br label %163

135:                                              ; No predecessors!
  br label %136

136:                                              ; preds = %135
  br label %137

137:                                              ; preds = %136, %115
  %138 = getelementptr inbounds %struct.H5VL_group_get_args_t, ptr %6, i32 0, i32 1
  %139 = getelementptr inbounds %struct.H5VL_group_get_info_args_t, ptr %138, i32 0, i32 1
  store ptr %8, ptr %139, align 8
  %140 = load ptr, ptr %5, align 8
  %141 = load i64, ptr @H5P_LST_DATASET_XFER_ID_g, align 8
  %142 = call i32 @H5VL_group_get(ptr noundef %140, ptr noundef %6, i64 noundef %141, ptr noundef null)
  %143 = icmp slt i32 %142, 0
  br i1 %143, label %144, label %159

144:                                              ; preds = %137
  br label %145

145:                                              ; preds = %144
  br label %146

146:                                              ; preds = %145
  br label %147

147:                                              ; preds = %146
  %148 = load i64, ptr @H5E_SYM_g, align 8
  %149 = load i64, ptr @H5E_CANTGET_g, align 8
  %150 = call i32 (ptr, ptr, i32, i64, i64, ptr, ...) @H5E_printf_stack(ptr noundef @.str, ptr noundef @__func__.H5Gget_num_objs, i32 noundef 891, i64 noundef %148, i64 noundef %149, ptr noundef @.str.38)
  br label %151

151:                                              ; preds = %147
  store i8 1, ptr %11, align 1
  %152 = load i8, ptr %11, align 1
  %153 = trunc i8 %152 to i1
  %154 = zext i1 %153 to i8
  store i8 %154, ptr %11, align 1
  br label %155

155:                                              ; preds = %151
  br label %156

156:                                              ; preds = %155
  store i32 -1, ptr %9, align 4
  br label %163

157:                                              ; No predecessors!
  br label %158

158:                                              ; preds = %157
  br label %159

159:                                              ; preds = %158, %137
  %160 = getelementptr inbounds %struct.H5G_info_t, ptr %8, i32 0, i32 1
  %161 = load i64, ptr %160, align 8
  %162 = load ptr, ptr %4, align 8
  store i64 %161, ptr %162, align 8
  br label %163

163:                                              ; preds = %159, %156, %134, %112, %94, %69, %45
  %164 = load i8, ptr %10, align 1
  %165 = trunc i8 %164 to i1
  %166 = xor i1 %165, true
  %167 = xor i1 %166, true
  %168 = zext i1 %167 to i32
  %169 = sext i32 %168 to i64
  %170 = icmp ne i64 %169, 0
  br i1 %170, label %171, label %173

171:                                              ; preds = %163
  %172 = call i32 @H5CX_pop(i1 noundef zeroext true)
  store i8 0, ptr %10, align 1
  br label %173

173:                                              ; preds = %171, %163
  %174 = load i8, ptr %11, align 1
  %175 = trunc i8 %174 to i1
  %176 = xor i1 %175, true
  %177 = xor i1 %176, true
  %178 = zext i1 %177 to i32
  %179 = sext i32 %178 to i64
  %180 = icmp ne i64 %179, 0
  br i1 %180, label %181, label %183

181:                                              ; preds = %173
  %182 = call i32 @H5E_dump_api_stack()
  br label %183

183:                                              ; preds = %181, %173
  %184 = load i32, ptr %9, align 4
  ret i32 %184
}