; Function Attrs: nounwind uwtable
define range(i32 -1, 1) i32 @H5Gget_num_objs(i64 noundef %0, ptr noundef writeonly %1) local_unnamed_addr #1 {
  %3 = alloca ptr, align 8
  %4 = alloca %struct.H5VL_group_get_args_t, align 8
  %5 = alloca %struct.H5G_info_t, align 8
  store ptr null, ptr %3, align 8
  %6 = load i8, ptr @H5_libinit_g, align 1
  %7 = trunc i8 %6 to i1
  %8 = load i8, ptr @H5_libterm_g, align 1
  %9 = trunc i8 %8 to i1
  %10 = select i1 %7, i1 true, i1 %9
  br i1 %10, label %18, label %11

11:                                               ; preds = %2
  %12 = tail call i32 @H5_init_library() #4
  %13 = icmp slt i32 %12, 0
  br i1 %13, label %14, label %18

14:                                               ; preds = %11
  %15 = load i64, ptr @H5E_FUNC_g, align 8
  %16 = load i64, ptr @H5E_CANTINIT_g, align 8
  %17 = tail call i32 (ptr, ptr, i32, i64, i64, ptr, ...) @H5E_printf_stack(ptr noundef nonnull @.str, ptr noundef nonnull @__func__.H5Gget_num_objs, i32 noundef 874, i64 noundef %15, i64 noundef %16, ptr noundef nonnull @.str.1) #4
  br label %.thread26

18:                                               ; preds = %11, %2
  %19 = tail call i32 @H5CX_push() #4
  %20 = icmp slt i32 %19, 0
  br i1 %20, label %21, label %25

21:                                               ; preds = %18
  %22 = load i64, ptr @H5E_FUNC_g, align 8
  %23 = load i64, ptr @H5E_CANTSET_g, align 8
  %24 = tail call i32 (ptr, ptr, i32, i64, i64, ptr, ...) @H5E_printf_stack(ptr noundef nonnull @.str, ptr noundef nonnull @__func__.H5Gget_num_objs, i32 noundef 874, i64 noundef %22, i64 noundef %23, ptr noundef nonnull @.str.2) #4
  br label %.thread26

25:                                               ; preds = %18
  %26 = tail call i32 @H5E_clear_stack() #4
  %27 = tail call i32 @H5I_get_type(i64 noundef %0) #4
  %28 = add i32 %27, -1
  %or.cond = icmp ult i32 %28, 2
  br i1 %or.cond, label %33, label %29

29:                                               ; preds = %25
  %30 = load i64, ptr @H5E_ARGS_g, align 8
  %31 = load i64, ptr @H5E_BADVALUE_g, align 8
  %32 = tail call i32 (ptr, ptr, i32, i64, i64, ptr, ...) @H5E_printf_stack(ptr noundef nonnull @.str, ptr noundef nonnull @__func__.H5Gget_num_objs, i32 noundef 879, i64 noundef %30, i64 noundef %31, ptr noundef nonnull @.str.35) #4
  br label %.thread32

33:                                               ; preds = %25
  %.not = icmp eq ptr %1, null
  br i1 %.not, label %34, label %38

34:                                               ; preds = %33
  %35 = load i64, ptr @H5E_ARGS_g, align 8
  %36 = load i64, ptr @H5E_BADVALUE_g, align 8
  %37 = tail call i32 (ptr, ptr, i32, i64, i64, ptr, ...) @H5E_printf_stack(ptr noundef nonnull @.str, ptr noundef nonnull @__func__.H5Gget_num_objs, i32 noundef 881, i64 noundef %35, i64 noundef %36, ptr noundef nonnull @.str.36) #4
  br label %.thread32

38:                                               ; preds = %33
  store i32 1, ptr %4, align 8
  %39 = getelementptr inbounds i8, ptr %4, i64 8
  %40 = call i32 @H5VL_setup_self_args(i64 noundef %0, ptr noundef nonnull %3, ptr noundef nonnull %39) #4
  %41 = icmp slt i32 %40, 0
  br i1 %41, label %42, label %46

42:                                               ; preds = %38
  %43 = load i64, ptr @H5E_SYM_g, align 8
  %44 = load i64, ptr @H5E_CANTSET_g, align 8
  %45 = call i32 (ptr, ptr, i32, i64, i64, ptr, ...) @H5E_printf_stack(ptr noundef nonnull @.str, ptr noundef nonnull @__func__.H5Gget_num_objs, i32 noundef 886, i64 noundef %43, i64 noundef %44, ptr noundef nonnull @.str.37) #4
  br label %.thread32

46:                                               ; preds = %38
  %47 = getelementptr inbounds i8, ptr %4, i64 48
  store ptr %5, ptr %47, align 8
  %48 = load ptr, ptr %3, align 8
  %49 = load i64, ptr @H5P_LST_DATASET_XFER_ID_g, align 8
  %50 = call i32 @H5VL_group_get(ptr noundef %48, ptr noundef nonnull %4, i64 noundef %49, ptr noundef null) #4
  %51 = icmp slt i32 %50, 0
  br i1 %51, label %52, label %57

52:                                               ; preds = %46
  %53 = load i64, ptr @H5E_SYM_g, align 8
  %54 = load i64, ptr @H5E_CANTGET_g, align 8
  %55 = call i32 (ptr, ptr, i32, i64, i64, ptr, ...) @H5E_printf_stack(ptr noundef nonnull @.str, ptr noundef nonnull @__func__.H5Gget_num_objs, i32 noundef 891, i64 noundef %53, i64 noundef %54, ptr noundef nonnull @.str.38) #4
  br label %.thread32

.thread32:                                        ; preds = %29, %34, %52, %42
  %56 = call i32 @H5CX_pop(i1 noundef zeroext true) #4
  br label %.thread26

57:                                               ; preds = %46
  %58 = getelementptr inbounds i8, ptr %5, i64 8
  %59 = load i64, ptr %58, align 8
  store i64 %59, ptr %1, align 8
  %60 = call i32 @H5CX_pop(i1 noundef zeroext true) #4
  br label %62

.thread26:                                        ; preds = %21, %14, %.thread32
  %61 = call i32 @H5E_dump_api_stack() #4
  br label %62

62:                                               ; preds = %57, %.thread26
  %.0162129 = phi i32 [ -1, %.thread26 ], [ 0, %57 ]
  ret i32 %.0162129
}